target datalayout = "e-m:e-p270:32:32-p271:32:32-p272:64:64-i64:64-i128:128-f80:128-n8:16:32:64-S128"
target triple = "x86_64-pc-linux-gnu"

%struct.TupleDescData = type { i32, i32, i32, i32, ptr, [0 x %struct.CompactAttribute] }
%struct.CompactAttribute = type { i32, i16, i8, i8, i8, i8, i8, i8, i8 }
%struct.FormData_pg_attribute = type { i32, %struct.nameData, i32, i16, i16, i32, i16, i8, i8, i8, i8, i8, i8, i8, i8, i8, i8, i8, i16, i32 }
%struct.nameData = type { [64 x i8] }
%struct.AttInMetadata = type { ptr, ptr, ptr, ptr }
%struct.FmgrInfo = type { ptr, i32, i16, i8, i8, i8, ptr, ptr, ptr }

; Function Attrs: inlinehint nounwind uwtable
define internal ptr @TupleDescAttr(ptr noundef %0, i32 noundef %1) #4 {
  %3 = alloca ptr, align 8
  %4 = alloca i32, align 4
  %5 = alloca ptr, align 8
  store ptr %0, ptr %3, align 8
  store i32 %1, ptr %4, align 4
  call void @llvm.lifetime.start.p0(i64 8, ptr %5) #10
  %6 = load ptr, ptr %3, align 8
  %7 = load ptr, ptr %3, align 8
  %8 = getelementptr inbounds nuw %struct.TupleDescData, ptr %7, i32 0, i32 0
  %9 = load i32, ptr %8, align 8
  %10 = sext i32 %9 to i64
  %11 = mul i64 %10, 16
  %12 = add i64 24, %11
  %13 = getelementptr inbounds nuw i8, ptr %6, i64 %12
  store ptr %13, ptr %5, align 8
  %14 = load ptr, ptr %5, align 8
  %15 = load i32, ptr %4, align 4
  %16 = sext i32 %15 to i64
  %17 = getelementptr inbounds %struct.FormData_pg_attribute, ptr %14, i64 %16
  call void @llvm.lifetime.end.p0(i64 8, ptr %5) #10
  ret ptr %17
}

; Function Attrs: nounwind uwtable
define dso_local ptr @BlessTupleDesc(ptr noundef %0) #0 {
  %2 = alloca ptr, align 8
  store ptr %0, ptr %2, align 8
  %3 = load ptr, ptr %2, align 8
  %4 = getelementptr inbounds nuw %struct.TupleDescData, ptr %3, i32 0, i32 1
  %5 = load i32, ptr %4, align 4
  %6 = icmp eq i32 %5, 2249
  br i1 %6, label %7, label %14

7:                                                ; preds = %1
  %8 = load ptr, ptr %2, align 8
  %9 = getelementptr inbounds nuw %struct.TupleDescData, ptr %8, i32 0, i32 2
  %10 = load i32, ptr %9, align 8
  %11 = icmp slt i32 %10, 0
  br i1 %11, label %12, label %14

12:                                               ; preds = %7
  %13 = load ptr, ptr %2, align 8
  call void @assign_record_type_typmod(ptr noundef %13)
  br label %14

14:                                               ; preds = %12, %7, %1
  %15 = load ptr, ptr %2, align 8
  ret ptr %15
}

; Function Attrs: nounwind uwtable
define dso_local ptr @TupleDescGetAttInMetadata(ptr noundef %0) #0 {
  %2 = alloca ptr, align 8
  %3 = alloca i32, align 4
  %4 = alloca i32, align 4
  %5 = alloca i32, align 4
  %6 = alloca i32, align 4
  %7 = alloca ptr, align 8
  %8 = alloca ptr, align 8
  %9 = alloca ptr, align 8
  %10 = alloca ptr, align 8
  %11 = alloca ptr, align 8
  store ptr %0, ptr %2, align 8
  call void @llvm.lifetime.start.p0(i64 4, ptr %3) #10
  %12 = load ptr, ptr %2, align 8
  %13 = getelementptr inbounds nuw %struct.TupleDescData, ptr %12, i32 0, i32 0
  %14 = load i32, ptr %13, align 8
  store i32 %14, ptr %3, align 4
  call void @llvm.lifetime.start.p0(i64 4, ptr %4) #10
  call void @llvm.lifetime.start.p0(i64 4, ptr %5) #10
  call void @llvm.lifetime.start.p0(i64 4, ptr %6) #10
  call void @llvm.lifetime.start.p0(i64 8, ptr %7) #10
  call void @llvm.lifetime.start.p0(i64 8, ptr %8) #10
  call void @llvm.lifetime.start.p0(i64 8, ptr %9) #10
  call void @llvm.lifetime.start.p0(i64 8, ptr %10) #10
  %15 = call ptr @palloc(i64 noundef 32)
  store ptr %15, ptr %10, align 8
  %16 = load ptr, ptr %2, align 8
  %17 = call ptr @BlessTupleDesc(ptr noundef %16)
  %18 = load ptr, ptr %10, align 8
  %19 = getelementptr inbounds nuw %struct.AttInMetadata, ptr %18, i32 0, i32 0
  store ptr %17, ptr %19, align 8
  %20 = load i32, ptr %3, align 4
  %21 = sext i32 %20 to i64
  %22 = mul i64 %21, 48
  %23 = call ptr @palloc0(i64 noundef %22)
  store ptr %23, ptr %7, align 8
  %24 = load i32, ptr %3, align 4
  %25 = sext i32 %24 to i64
  %26 = mul i64 %25, 4
  %27 = call ptr @palloc0(i64 noundef %26)
  store ptr %27, ptr %8, align 8
  %28 = load i32, ptr %3, align 4
  %29 = sext i32 %28 to i64
  %30 = mul i64 %29, 4
  %31 = call ptr @palloc0(i64 noundef %30)
  store ptr %31, ptr %9, align 8
  store i32 0, ptr %4, align 4
  br label %32

32:                                               ; preds = %66, %1
  %33 = load i32, ptr %4, align 4
  %34 = load i32, ptr %3, align 4
  %35 = icmp slt i32 %33, %34
  br i1 %35, label %36, label %69

36:                                               ; preds = %32
  call void @llvm.lifetime.start.p0(i64 8, ptr %11) #10
  %37 = load ptr, ptr %2, align 8
  %38 = load i32, ptr %4, align 4
  %39 = call ptr @TupleDescAttr(ptr noundef %37, i32 noundef %38)
  store ptr %39, ptr %11, align 8
  %40 = load ptr, ptr %11, align 8
  %41 = getelementptr inbounds nuw %struct.FormData_pg_attribute, ptr %40, i32 0, i32 16
  %42 = load i8, ptr %41, align 1, !range !4, !noundef !5
  %43 = trunc i8 %42 to i1
  br i1 %43, label %65, label %44

44:                                               ; preds = %36
  %45 = load ptr, ptr %11, align 8
  %46 = getelementptr inbounds nuw %struct.FormData_pg_attribute, ptr %45, i32 0, i32 2
  %47 = load i32, ptr %46, align 4
  store i32 %47, ptr %5, align 4
  %48 = load i32, ptr %5, align 4
  %49 = load ptr, ptr %8, align 8
  %50 = load i32, ptr %4, align 4
  %51 = sext i32 %50 to i64
  %52 = getelementptr inbounds i32, ptr %49, i64 %51
  call void @getTypeInputInfo(i32 noundef %48, ptr noundef %6, ptr noundef %52)
  %53 = load i32, ptr %6, align 4
  %54 = load ptr, ptr %7, align 8
  %55 = load i32, ptr %4, align 4
  %56 = sext i32 %55 to i64
  %57 = getelementptr inbounds %struct.FmgrInfo, ptr %54, i64 %56
  call void @fmgr_info(i32 noundef %53, ptr noundef %57)
  %58 = load ptr, ptr %11, align 8
  %59 = getelementptr inbounds nuw %struct.FormData_pg_attribute, ptr %58, i32 0, i32 5
  %60 = load i32, ptr %59, align 4
  %61 = load ptr, ptr %9, align 8
  %62 = load i32, ptr %4, align 4
  %63 = sext i32 %62 to i64
  %64 = getelementptr inbounds i32, ptr %61, i64 %63
  store i32 %60, ptr %64, align 4
  br label %65

65:                                               ; preds = %44, %36
  call void @llvm.lifetime.end.p0(i64 8, ptr %11) #10
  br label %66

66:                                               ; preds = %65
  %67 = load i32, ptr %4, align 4
  %68 = add i32 %67, 1
  store i32 %68, ptr %4, align 4
  br label %32, !llvm.loop !16

69:                                               ; preds = %32
  %70 = load ptr, ptr %7, align 8
  %71 = load ptr, ptr %10, align 8
  %72 = getelementptr inbounds nuw %struct.AttInMetadata, ptr %71, i32 0, i32 1
  store ptr %70, ptr %72, align 8
  %73 = load ptr, ptr %8, align 8
  %74 = load ptr, ptr %10, align 8
  %75 = getelementptr inbounds nuw %struct.AttInMetadata, ptr %74, i32 0, i32 2
  store ptr %73, ptr %75, align 8
  %76 = load ptr, ptr %9, align 8
  %77 = load ptr, ptr %10, align 8
  %78 = getelementptr inbounds nuw %struct.AttInMetadata, ptr %77, i32 0, i32 3
  store ptr %76, ptr %78, align 8
  %79 = load ptr, ptr %10, align 8
  call void @llvm.lifetime.end.p0(i64 8, ptr %10) #10
  call void @llvm.lifetime.end.p0(i64 8, ptr %9) #10
  call void @llvm.lifetime.end.p0(i64 8, ptr %8) #10
  call void @llvm.lifetime.end.p0(i64 8, ptr %7) #10
  call void @llvm.lifetime.end.p0(i64 4, ptr %6) #10
  call void @llvm.lifetime.end.p0(i64 4, ptr %5) #10
  call void @llvm.lifetime.end.p0(i64 4, ptr %4) #10
  call void @llvm.lifetime.end.p0(i64 4, ptr %3) #10
  ret ptr %79
}