; Function Attrs: nounwind uwtable
define dso_local ptr @TupleDescGetAttInMetadata(ptr noundef %0) local_unnamed_addr #1 {
  %2 = alloca i32, align 4
  %3 = load i32, ptr %0, align 8
  call void @llvm.lifetime.start.p0(i64 4, ptr nonnull %2) #14
  %4 = tail call ptr @palloc(i64 noundef 32) #14
  %5 = getelementptr inbounds nuw i8, ptr %0, i64 4
  %6 = load i32, ptr %5, align 4
  %7 = icmp eq i32 %6, 2249
  br i1 %7, label %8, label %BlessTupleDesc.exit

8:                                                ; preds = %1
  %9 = getelementptr inbounds nuw i8, ptr %0, i64 8
  %10 = load i32, ptr %9, align 8
  %11 = icmp slt i32 %10, 0
  br i1 %11, label %12, label %BlessTupleDesc.exit

12:                                               ; preds = %8
  tail call void @assign_record_type_typmod(ptr noundef nonnull %0) #14
  br label %BlessTupleDesc.exit

BlessTupleDesc.exit:                              ; preds = %1, %8, %12
  store ptr %0, ptr %4, align 8
  %13 = sext i32 %3 to i64
  %14 = mul nsw i64 %13, 48
  %15 = tail call ptr @palloc0(i64 noundef %14) #14
  %16 = shl nsw i64 %13, 2
  %17 = tail call ptr @palloc0(i64 noundef %16) #14
  %18 = tail call ptr @palloc0(i64 noundef %16) #14
  %invariant.gep = getelementptr i8, ptr %0, i64 24
  %19 = icmp sgt i32 %3, 0
  br i1 %19, label %.lr.ph.preheader, label %._crit_edge

.lr.ph.preheader:                                 ; preds = %BlessTupleDesc.exit
  %wide.trip.count = zext nneg i32 %3 to i64
  br label %.lr.ph

.lr.ph:                                           ; preds = %.lr.ph.preheader, %36
  %indvars.iv = phi i64 [ 0, %.lr.ph.preheader ], [ %indvars.iv.next, %36 ]
  %20 = load i32, ptr %0, align 8
  %21 = sext i32 %20 to i64
  %22 = shl nsw i64 %21, 4
  %gep = getelementptr i8, ptr %invariant.gep, i64 %22
  %23 = getelementptr inbounds nuw %struct.FormData_pg_attribute, ptr %gep, i64 %indvars.iv
  %24 = getelementptr inbounds nuw i8, ptr %23, i64 91
  %25 = load i8, ptr %24, align 1, !range !5, !noundef !6
  %26 = trunc nuw i8 %25 to i1
  br i1 %26, label %36, label %27

27:                                               ; preds = %.lr.ph
  %28 = getelementptr inbounds nuw i8, ptr %23, i64 68
  %29 = load i32, ptr %28, align 4
  %30 = getelementptr inbounds nuw i32, ptr %17, i64 %indvars.iv
  call void @getTypeInputInfo(i32 noundef %29, ptr noundef nonnull %2, ptr noundef %30) #14
  %31 = load i32, ptr %2, align 4
  %32 = getelementptr inbounds nuw %struct.FmgrInfo, ptr %15, i64 %indvars.iv
  call void @fmgr_info(i32 noundef %31, ptr noundef %32) #14
  %33 = getelementptr inbounds nuw i8, ptr %23, i64 76
  %34 = load i32, ptr %33, align 4
  %35 = getelementptr inbounds nuw i32, ptr %18, i64 %indvars.iv
  store i32 %34, ptr %35, align 4
  br label %36

36:                                               ; preds = %27, %.lr.ph
  %indvars.iv.next = add nuw nsw i64 %indvars.iv, 1
  %exitcond.not = icmp eq i64 %indvars.iv.next, %wide.trip.count
  br i1 %exitcond.not, label %._crit_edge, label %.lr.ph, !llvm.loop !14

._crit_edge:                                      ; preds = %36, %BlessTupleDesc.exit
  %37 = getelementptr inbounds nuw i8, ptr %4, i64 8
  store ptr %15, ptr %37, align 8
  %38 = getelementptr inbounds nuw i8, ptr %4, i64 16
  store ptr %17, ptr %38, align 8
  %39 = getelementptr inbounds nuw i8, ptr %4, i64 24
  store ptr %18, ptr %39, align 8
  call void @llvm.lifetime.end.p0(i64 4, ptr nonnull %2) #14
  ret ptr %4
}